target datalayout = "e-m:e-p270:32:32-p271:32:32-p272:64:64-i64:64-i128:128-f80:128-n8:16:32:64-S128"
target triple = "x86_64-pc-linux-gnu"

%"class.cmMakefileProfilingData::RAII" = type { ptr }

; Function Attrs: mustprogress nounwind uwtable
define dso_local void @_ZN23cmMakefileProfilingData4RAIID2Ev(ptr noundef nonnull align 8 dereferenceable(8) %0) unnamed_addr #5 align 2 personality ptr @__gxx_personality_v0 {
  %2 = alloca ptr, align 8
  store ptr %0, ptr %2, align 8, !tbaa !58
  %3 = load ptr, ptr %2, align 8
  %4 = getelementptr inbounds nuw %"class.cmMakefileProfilingData::RAII", ptr %3, i32 0, i32 0
  %5 = load ptr, ptr %4, align 8, !tbaa !60
  %6 = icmp ne ptr %5, null
  br i1 %6, label %7, label %11

7:                                                ; preds = %1
  %8 = getelementptr inbounds nuw %"class.cmMakefileProfilingData::RAII", ptr %3, i32 0, i32 0
  %9 = load ptr, ptr %8, align 8, !tbaa !60
  invoke void @_ZN23cmMakefileProfilingData9StopEntryEv(ptr noundef nonnull align 8 dereferenceable(520) %9)
          to label %10 unwind label %12

10:                                               ; preds = %7
  br label %11

11:                                               ; preds = %10, %1
  ret void

12:                                               ; preds = %7
  %13 = landingpad { ptr, i32 }
          catch ptr null
  %14 = extractvalue { ptr, i32 } %13, 0
  call void @__clang_call_terminate(ptr %14) #17
  unreachable
}