; Function Attrs: mustprogress nounwind uwtable
define dso_local void @_ZN23cmMakefileProfilingData4RAIID2Ev(ptr noundef nonnull readonly align 8 captures(none) dereferenceable(8) %0) unnamed_addr #7 align 2 personality ptr @__gxx_personality_v0 {
  %2 = load ptr, ptr %0, align 8, !tbaa !54
  %.not = icmp eq ptr %2, null
  br i1 %.not, label %4, label %3

3:                                                ; preds = %1
  invoke void @_ZN23cmMakefileProfilingData9StopEntryEv(ptr noundef nonnull align 8 dereferenceable(520) %2)
          to label %4 unwind label %5

4:                                                ; preds = %3, %1
  ret void

5:                                                ; preds = %3
  %6 = landingpad { ptr, i32 }
          catch ptr null
  %7 = extractvalue { ptr, i32 } %6, 0
  tail call void @__clang_call_terminate(ptr %7) #21
  unreachable
}